target datalayout = "e-m:e-p270:32:32-p271:32:32-p272:64:64-i64:64-i128:128-f80:128-n8:16:32:64-S128"
target triple = "x86_64-pc-linux-gnu"

%struct.xml_flags_t = type { i8, [3 x i8] }

@Level = internal global i32 0, align 4
@.str.33 = private unnamed_addr constant [4 x i8] c"\22>\0A\00", align 1
@.str.45 = private unnamed_addr constant [10 x i8] c"_gxl_type\00", align 1
@.str.46 = private unnamed_addr constant [20 x i8] c"\09<type xlink:href=\22\00", align 1
@.str.47 = private unnamed_addr constant [10 x i8] c"\09</type>\0A\00", align 1

; Function Attrs: nounwind uwtable
define internal i32 @xml_url_puts(ptr noundef %0, ptr noundef %1) #0 {
  %3 = alloca ptr, align 8
  %4 = alloca ptr, align 8
  %5 = alloca %struct.xml_flags_t, align 4
  store ptr %0, ptr %3, align 8, !tbaa !9
  store ptr %1, ptr %4, align 8, !tbaa !23
  call void @llvm.lifetime.start.p0(i64 4, ptr %5) #13
  call void @llvm.memset.p0.i64(ptr align 4 %5, i8 0, i64 4, i1 false)
  %6 = load ptr, ptr %4, align 8, !tbaa !23
  %7 = load ptr, ptr %3, align 8, !tbaa !9
  %8 = load i32, ptr %5, align 4
  %9 = call i32 @xml_escape(ptr noundef %6, i32 %8, ptr noundef @put, ptr noundef %7)
  call void @llvm.lifetime.end.p0(i64 4, ptr %5) #13
  ret i32 %9
}

; Function Attrs: nounwind uwtable
define internal void @tabover(ptr noundef %0) #0 {
  %2 = alloca ptr, align 8
  %3 = alloca i32, align 4
  store ptr %0, ptr %2, align 8, !tbaa !9
  call void @llvm.lifetime.start.p0(i64 4, ptr %3) #13
  %4 = load i32, ptr @Level, align 4, !tbaa !11
  store i32 %4, ptr %3, align 4, !tbaa !11
  br label %5

5:                                                ; preds = %9, %1
  %6 = load i32, ptr %3, align 4, !tbaa !11
  %7 = add nsw i32 %6, -1
  store i32 %7, ptr %3, align 4, !tbaa !11
  %8 = icmp ne i32 %6, 0
  br i1 %8, label %9, label %12

9:                                                ; preds = %5
  %10 = load ptr, ptr %2, align 8, !tbaa !9
  %11 = call i32 @putc(i32 noundef 9, ptr noundef %10)
  br label %5, !llvm.loop !79

12:                                               ; preds = %5
  call void @llvm.lifetime.end.p0(i64 4, ptr %3) #13
  ret void
}

; Function Attrs: nounwind uwtable
define internal void @printHref(ptr noundef %0, ptr noundef %1) #0 {
  %3 = alloca ptr, align 8
  %4 = alloca ptr, align 8
  %5 = alloca ptr, align 8
  store ptr %0, ptr %3, align 8, !tbaa !9
  store ptr %1, ptr %4, align 8, !tbaa !13
  call void @llvm.lifetime.start.p0(i64 8, ptr %5) #13
  %6 = load ptr, ptr %4, align 8, !tbaa !13
  %7 = call ptr @agget(ptr noundef %6, ptr noundef @.str.45)
  store ptr %7, ptr %5, align 8, !tbaa !23
  %8 = load ptr, ptr %5, align 8, !tbaa !23
  %9 = icmp eq ptr %8, null
  br i1 %9, label %27, label %10

10:                                               ; preds = %2
  %11 = load ptr, ptr %5, align 8, !tbaa !23
  %12 = load i8, ptr %11, align 1, !tbaa !25
  %13 = sext i8 %12 to i32
  %14 = icmp eq i32 %13, 0
  br i1 %14, label %27, label %15

15:                                               ; preds = %10
  %16 = load ptr, ptr %3, align 8, !tbaa !9
  call void @tabover(ptr noundef %16)
  %17 = load ptr, ptr %3, align 8, !tbaa !9
  %18 = call i32 (ptr, ptr, ...) @fprintf(ptr noundef %17, ptr noundef @.str.46) #13
  %19 = load ptr, ptr %3, align 8, !tbaa !9
  %20 = load ptr, ptr %5, align 8, !tbaa !23
  %21 = call i32 @xml_url_puts(ptr noundef %19, ptr noundef %20)
  %22 = load ptr, ptr %3, align 8, !tbaa !9
  %23 = call i32 (ptr, ptr, ...) @fprintf(ptr noundef %22, ptr noundef @.str.33) #13
  %24 = load ptr, ptr %3, align 8, !tbaa !9
  call void @tabover(ptr noundef %24)
  %25 = load ptr, ptr %3, align 8, !tbaa !9
  %26 = call i32 (ptr, ptr, ...) @fprintf(ptr noundef %25, ptr noundef @.str.47) #13
  br label %27

27:                                               ; preds = %15, %10, %2
  call void @llvm.lifetime.end.p0(i64 8, ptr %5) #13
  ret void
}