; Function Attrs: nounwind uwtable
define internal fastcc void @printHref(ptr noundef %0, ptr noundef %1) unnamed_addr #0 {
  %3 = tail call ptr @agget(ptr noundef %1, ptr noundef nonnull @.str.45) #21
  %4 = icmp eq ptr %3, null
  br i1 %4, label %19, label %5

5:                                                ; preds = %2
  %6 = load i8, ptr %3, align 1, !tbaa !24
  %7 = icmp eq i8 %6, 0
  br i1 %7, label %19, label %8

8:                                                ; preds = %5
  %9 = load i32, ptr @Level, align 4, !tbaa !20
  %.not1.i = icmp eq i32 %9, 0
  br i1 %.not1.i, label %tabover.exit, label %.lr.ph.i

.lr.ph.i:                                         ; preds = %8, %.lr.ph.i
  %.02.i = phi i32 [ %10, %.lr.ph.i ], [ %9, %8 ]
  %10 = add nsw i32 %.02.i, -1
  %11 = tail call i32 @putc(i32 noundef 9, ptr noundef %0)
  %.not.i = icmp eq i32 %10, 0
  br i1 %.not.i, label %tabover.exit, label %.lr.ph.i, !llvm.loop !22

tabover.exit:                                     ; preds = %.lr.ph.i, %8
  %12 = tail call i64 @fwrite(ptr nonnull @.str.46, i64 19, i64 1, ptr %0)
  %13 = tail call i32 @xml_escape(ptr noundef nonnull %3, i32 0, ptr noundef nonnull @put, ptr noundef %0) #21
  %14 = tail call i64 @fwrite(ptr nonnull @.str.33, i64 3, i64 1, ptr %0)
  %15 = load i32, ptr @Level, align 4, !tbaa !20
  %.not1.i10 = icmp eq i32 %15, 0
  br i1 %.not1.i10, label %tabover.exit14, label %.lr.ph.i11

.lr.ph.i11:                                       ; preds = %tabover.exit, %.lr.ph.i11
  %.02.i12 = phi i32 [ %16, %.lr.ph.i11 ], [ %15, %tabover.exit ]
  %16 = add nsw i32 %.02.i12, -1
  %17 = tail call i32 @putc(i32 noundef 9, ptr noundef %0)
  %.not.i13 = icmp eq i32 %16, 0
  br i1 %.not.i13, label %tabover.exit14, label %.lr.ph.i11, !llvm.loop !22

tabover.exit14:                                   ; preds = %.lr.ph.i11, %tabover.exit
  %18 = tail call i64 @fwrite(ptr nonnull @.str.47, i64 9, i64 1, ptr %0)
  br label %19

19:                                               ; preds = %tabover.exit14, %5, %2
  ret void
}